; Function Attrs: mustprogress uwtable
define noundef zeroext i1 @_Z17gmx_fio_ndoe_realP8t_fileioPfiPKcS3_i(ptr noundef %0, ptr noundef %1, i32 noundef %2, ptr noundef %3, ptr noundef %4, i32 noundef %5) local_unnamed_addr #3 {
  tail call void @_Z12gmx_fio_lockP8t_fileio(ptr noundef %0)
  %7 = icmp sgt i32 %2, 0
  br i1 %7, label %.lr.ph.preheader, label %._crit_edge

.lr.ph.preheader:                                 ; preds = %6
  %wide.trip.count = zext nneg i32 %2 to i64
  br label %.lr.ph

.lr.ph:                                           ; preds = %.lr.ph.preheader, %11
  %indvars.iv = phi i64 [ 0, %.lr.ph.preheader ], [ %indvars.iv.next, %11 ]
  %.01213 = phi i1 [ true, %.lr.ph.preheader ], [ %12, %11 ]
  br i1 %.01213, label %8, label %11

8:                                                ; preds = %.lr.ph
  %9 = getelementptr inbounds nuw float, ptr %1, i64 %indvars.iv
  %10 = tail call fastcc noundef zeroext i1 @_ZL6do_xdrP8t_fileioPvm15InputOutputTypePKcS4_i(ptr noundef %0, ptr noundef %9, i64 noundef 1, i32 noundef 0, ptr noundef %3, ptr noundef %4, i32 noundef %5)
  br label %11

11:                                               ; preds = %8, %.lr.ph
  %12 = phi i1 [ false, %.lr.ph ], [ %10, %8 ]
  %indvars.iv.next = add nuw nsw i64 %indvars.iv, 1
  %exitcond.not = icmp eq i64 %indvars.iv.next, %wide.trip.count
  br i1 %exitcond.not, label %._crit_edge, label %.lr.ph, !llvm.loop !58

._crit_edge:                                      ; preds = %11, %6
  %.012.lcssa = phi i1 [ true, %6 ], [ %12, %11 ]
  tail call void @_Z14gmx_fio_unlockP8t_fileio(ptr noundef %0)
  ret i1 %.012.lcssa
}